target datalayout = "e-m:e-p270:32:32-p271:32:32-p272:64:64-i64:64-i128:128-f80:128-n8:16:32:64-S128"
target triple = "x86_64-pc-linux-gnu"

@g_assert_poison = external global ptr, align 8
@.str.10 = private unnamed_addr constant [54 x i8] c"src/hotspot/share/interpreter/abstractInterpreter.cpp\00", align 1
@.str.11 = private unnamed_addr constant [37 x i8] c"unexpected method intrinsic kind: %d\00", align 1

; Function Attrs: mustprogress nounwind uwtable
define hidden noundef i32 @_ZN19AbstractInterpreter16method_intrinsicENS_10MethodKindE(i32 noundef %0) #1 align 2 {
  %2 = alloca i32, align 4
  %3 = alloca i32, align 4
  store i32 %0, ptr %3, align 4
  %4 = load i32, ptr %3, align 4
  switch i32 %4, label %30 [
    i32 15, label %5
    i32 16, label %6
    i32 17, label %7
    i32 18, label %8
    i32 21, label %9
    i32 22, label %10
    i32 19, label %11
    i32 20, label %12
    i32 23, label %13
    i32 24, label %14
    i32 26, label %15
    i32 25, label %16
    i32 27, label %17
    i32 28, label %18
    i32 29, label %19
    i32 30, label %20
    i32 31, label %21
    i32 32, label %22
    i32 39, label %23
    i32 33, label %24
    i32 34, label %25
    i32 37, label %26
    i32 38, label %27
    i32 35, label %28
    i32 36, label %29
  ]

5:                                                ; preds = %1
  store i32 10, ptr %2, align 4
  br label %36

6:                                                ; preds = %1
  store i32 14, ptr %2, align 4
  br label %36

7:                                                ; preds = %1
  store i32 15, ptr %2, align 4
  br label %36

8:                                                ; preds = %1
  store i32 6, ptr %2, align 4
  br label %36

9:                                                ; preds = %1
  store i32 18, ptr %2, align 4
  br label %36

10:                                               ; preds = %1
  store i32 19, ptr %2, align 4
  br label %36

11:                                               ; preds = %1
  store i32 17, ptr %2, align 4
  br label %36

12:                                               ; preds = %1
  store i32 56, ptr %2, align 4
  br label %36

13:                                               ; preds = %1
  store i32 20, ptr %2, align 4
  br label %36

14:                                               ; preds = %1
  store i32 21, ptr %2, align 4
  br label %36

15:                                               ; preds = %1
  store i32 38, ptr %2, align 4
  br label %36

16:                                               ; preds = %1
  store i32 39, ptr %2, align 4
  br label %36

17:                                               ; preds = %1
  store i32 166, ptr %2, align 4
  br label %36

18:                                               ; preds = %1
  store i32 190, ptr %2, align 4
  br label %36

19:                                               ; preds = %1
  store i32 191, ptr %2, align 4
  br label %36

20:                                               ; preds = %1
  store i32 192, ptr %2, align 4
  br label %36

21:                                               ; preds = %1
  store i32 193, ptr %2, align 4
  br label %36

22:                                               ; preds = %1
  store i32 194, ptr %2, align 4
  br label %36

23:                                               ; preds = %1
  store i32 100, ptr %2, align 4
  br label %36

24:                                               ; preds = %1
  store i32 63, ptr %2, align 4
  br label %36

25:                                               ; preds = %1
  store i32 61, ptr %2, align 4
  br label %36

26:                                               ; preds = %1
  store i32 66, ptr %2, align 4
  br label %36

27:                                               ; preds = %1
  store i32 64, ptr %2, align 4
  br label %36

28:                                               ; preds = %1
  store i32 67, ptr %2, align 4
  br label %36

29:                                               ; preds = %1
  store i32 68, ptr %2, align 4
  br label %36

30:                                               ; preds = %1
  br label %31

31:                                               ; preds = %30
  %32 = load ptr, ptr @g_assert_poison, align 8
  store i8 88, ptr %32, align 1
  %33 = load i32, ptr %3, align 4
  call void (i32, ptr, i32, ptr, ...) @_Z12report_fatal11VMErrorTypePKciS1_z(i32 noundef -536870912, ptr noundef @.str.10, i32 noundef 236, ptr noundef @.str.11, i32 noundef %33) #7
  unreachable

34:                                               ; No predecessors!
  br label %35

35:                                               ; preds = %34
  store i32 0, ptr %2, align 4
  br label %36

36:                                               ; preds = %35, %29, %28, %27, %26, %25, %24, %23, %22, %21, %20, %19, %18, %17, %16, %15, %14, %13, %12, %11, %10, %9, %8, %7, %6, %5
  %37 = load i32, ptr %2, align 4
  ret i32 %37
}