; Function Attrs: mustprogress nounwind uwtable
define hidden noundef range(i32 6, 195) i32 @_ZN19AbstractInterpreter16method_intrinsicENS_10MethodKindE(i32 noundef %0) local_unnamed_addr #1 align 2 {
  %switch.tableidx = add i32 %0, -15
  %2 = icmp ult i32 %switch.tableidx, 25
  br i1 %2, label %switch.lookup, label %3

3:                                                ; preds = %1
  %4 = load ptr, ptr @g_assert_poison, align 8
  store i8 88, ptr %4, align 1
  tail call void (i32, ptr, i32, ptr, ...) @_Z12report_fatal11VMErrorTypePKciS1_z(i32 noundef -536870912, ptr noundef nonnull @.str.10, i32 noundef 236, ptr noundef nonnull @.str.11, i32 noundef %0) #11
  unreachable

switch.lookup:                                    ; preds = %1
  %5 = zext nneg i32 %switch.tableidx to i64
  %switch.gep = getelementptr inbounds [25 x i32], ptr @switch.table._ZN19AbstractInterpreter16method_intrinsicENS_10MethodKindE, i64 0, i64 %5
  %switch.load = load i32, ptr %switch.gep, align 4
  ret i32 %switch.load
}